target datalayout = "e-m:e-p270:32:32-p271:32:32-p272:64:64-i64:64-i128:128-f80:128-n8:16:32:64-S128"
target triple = "x86_64-pc-linux-gnu"

%struct.ItemPointerData = type { %struct.BlockIdData, i16 }
%struct.BlockIdData = type { i16, i16 }
%struct.HashScanOpaqueData = type { i32, i32, i32, i8, i8, ptr, i32, %struct.HashScanPosData }
%struct.HashScanPosData = type { i32, i32, i32, i32, i32, i32, i32, [408 x %struct.HashScanPosItem] }
%struct.HashScanPosItem = type { %struct.ItemPointerData, i16 }
%struct.IndexScanDescData = type { ptr, ptr, ptr, i32, i32, ptr, ptr, i8, i8, i8, i8, i8, ptr, ptr, ptr, ptr, ptr, %struct.ItemPointerData, i8, ptr, i8, ptr, ptr, i8, ptr }

; Function Attrs: inlinehint nounwind uwtable
define internal zeroext i1 @BlockNumberIsValid(i32 noundef %0) #2 {
  %2 = alloca i32, align 4
  store i32 %0, ptr %2, align 4
  %3 = load i32, ptr %2, align 4
  %4 = icmp ne i32 %3, -1
  ret i1 %4
}

; Function Attrs: nounwind uwtable
define dso_local void @hashrescan(ptr noundef %0, ptr noundef %1, i32 noundef %2, ptr noundef %3, i32 noundef %4) #0 {
  %6 = alloca ptr, align 8
  %7 = alloca ptr, align 8
  %8 = alloca i32, align 4
  %9 = alloca ptr, align 8
  %10 = alloca i32, align 4
  %11 = alloca ptr, align 8
  %12 = alloca ptr, align 8
  store ptr %0, ptr %6, align 8
  store ptr %1, ptr %7, align 8
  store i32 %2, ptr %8, align 4
  store ptr %3, ptr %9, align 8
  store i32 %4, ptr %10, align 4
  call void @llvm.lifetime.start.p0(i64 8, ptr %11) #6
  %13 = load ptr, ptr %6, align 8
  %14 = getelementptr inbounds nuw %struct.IndexScanDescData, ptr %13, i32 0, i32 12
  %15 = load ptr, ptr %14, align 8
  store ptr %15, ptr %11, align 8
  call void @llvm.lifetime.start.p0(i64 8, ptr %12) #6
  %16 = load ptr, ptr %6, align 8
  %17 = getelementptr inbounds nuw %struct.IndexScanDescData, ptr %16, i32 0, i32 1
  %18 = load ptr, ptr %17, align 8
  store ptr %18, ptr %12, align 8
  %19 = load ptr, ptr %11, align 8
  %20 = getelementptr inbounds nuw %struct.HashScanOpaqueData, ptr %19, i32 0, i32 7
  %21 = getelementptr inbounds nuw %struct.HashScanPosData, ptr %20, i32 0, i32 1
  %22 = load i32, ptr %21, align 4
  %23 = call zeroext i1 @BlockNumberIsValid(i32 noundef %22)
  br i1 %23, label %24, label %32

24:                                               ; preds = %5
  %25 = load ptr, ptr %11, align 8
  %26 = getelementptr inbounds nuw %struct.HashScanOpaqueData, ptr %25, i32 0, i32 6
  %27 = load i32, ptr %26, align 8
  %28 = icmp sgt i32 %27, 0
  br i1 %28, label %29, label %31

29:                                               ; preds = %24
  %30 = load ptr, ptr %6, align 8
  call void @_hash_kill_items(ptr noundef %30)
  br label %31

31:                                               ; preds = %29, %24
  br label %32

32:                                               ; preds = %31, %5
  %33 = load ptr, ptr %12, align 8
  %34 = load ptr, ptr %11, align 8
  call void @_hash_dropscanbuf(ptr noundef %33, ptr noundef %34)
  br label %35

35:                                               ; preds = %32
  %36 = load ptr, ptr %11, align 8
  %37 = getelementptr inbounds nuw %struct.HashScanOpaqueData, ptr %36, i32 0, i32 7
  %38 = getelementptr inbounds nuw %struct.HashScanPosData, ptr %37, i32 0, i32 0
  store i32 0, ptr %38, align 4
  %39 = load ptr, ptr %11, align 8
  %40 = getelementptr inbounds nuw %struct.HashScanOpaqueData, ptr %39, i32 0, i32 7
  %41 = getelementptr inbounds nuw %struct.HashScanPosData, ptr %40, i32 0, i32 1
  store i32 -1, ptr %41, align 4
  %42 = load ptr, ptr %11, align 8
  %43 = getelementptr inbounds nuw %struct.HashScanOpaqueData, ptr %42, i32 0, i32 7
  %44 = getelementptr inbounds nuw %struct.HashScanPosData, ptr %43, i32 0, i32 2
  store i32 -1, ptr %44, align 4
  %45 = load ptr, ptr %11, align 8
  %46 = getelementptr inbounds nuw %struct.HashScanOpaqueData, ptr %45, i32 0, i32 7
  %47 = getelementptr inbounds nuw %struct.HashScanPosData, ptr %46, i32 0, i32 3
  store i32 -1, ptr %47, align 4
  %48 = load ptr, ptr %11, align 8
  %49 = getelementptr inbounds nuw %struct.HashScanOpaqueData, ptr %48, i32 0, i32 7
  %50 = getelementptr inbounds nuw %struct.HashScanPosData, ptr %49, i32 0, i32 4
  store i32 0, ptr %50, align 4
  %51 = load ptr, ptr %11, align 8
  %52 = getelementptr inbounds nuw %struct.HashScanOpaqueData, ptr %51, i32 0, i32 7
  %53 = getelementptr inbounds nuw %struct.HashScanPosData, ptr %52, i32 0, i32 5
  store i32 0, ptr %53, align 4
  %54 = load ptr, ptr %11, align 8
  %55 = getelementptr inbounds nuw %struct.HashScanOpaqueData, ptr %54, i32 0, i32 7
  %56 = getelementptr inbounds nuw %struct.HashScanPosData, ptr %55, i32 0, i32 6
  store i32 0, ptr %56, align 4
  br label %57

57:                                               ; preds = %35
  br label %58

58:                                               ; preds = %57
  %59 = load ptr, ptr %7, align 8
  %60 = icmp ne ptr %59, null
  br i1 %60, label %61, label %76

61:                                               ; preds = %58
  %62 = load ptr, ptr %6, align 8
  %63 = getelementptr inbounds nuw %struct.IndexScanDescData, ptr %62, i32 0, i32 3
  %64 = load i32, ptr %63, align 8
  %65 = icmp sgt i32 %64, 0
  br i1 %65, label %66, label %76

66:                                               ; preds = %61
  %67 = load ptr, ptr %6, align 8
  %68 = getelementptr inbounds nuw %struct.IndexScanDescData, ptr %67, i32 0, i32 5
  %69 = load ptr, ptr %68, align 8
  %70 = load ptr, ptr %7, align 8
  %71 = load ptr, ptr %6, align 8
  %72 = getelementptr inbounds nuw %struct.IndexScanDescData, ptr %71, i32 0, i32 3
  %73 = load i32, ptr %72, align 8
  %74 = sext i32 %73 to i64
  %75 = mul i64 %74, 72
  call void @llvm.memcpy.p0.p0.i64(ptr align 8 %69, ptr align 8 %70, i64 %75, i1 false)
  br label %76

76:                                               ; preds = %66, %61, %58
  %77 = load ptr, ptr %11, align 8
  %78 = getelementptr inbounds nuw %struct.HashScanOpaqueData, ptr %77, i32 0, i32 3
  store i8 0, ptr %78, align 4
  %79 = load ptr, ptr %11, align 8
  %80 = getelementptr inbounds nuw %struct.HashScanOpaqueData, ptr %79, i32 0, i32 4
  store i8 0, ptr %80, align 1
  call void @llvm.lifetime.end.p0(i64 8, ptr %12) #6
  call void @llvm.lifetime.end.p0(i64 8, ptr %11) #6
  ret void
}