; Function Attrs: nounwind uwtable
define dso_local void @hashrescan(ptr noundef %0, ptr noundef readonly captures(address_is_null) %1, i32 %2, ptr readnone captures(none) %3, i32 %4) #0 {
  %6 = getelementptr inbounds nuw i8, ptr %0, i64 56
  %7 = load ptr, ptr %6, align 8
  %8 = getelementptr inbounds nuw i8, ptr %0, i64 8
  %9 = load ptr, ptr %8, align 8
  %10 = getelementptr inbounds nuw i8, ptr %7, i64 28
  %11 = getelementptr inbounds nuw i8, ptr %7, i64 32
  %12 = load i32, ptr %11, align 4
  %.not22 = icmp eq i32 %12, -1
  br i1 %.not22, label %18, label %13

13:                                               ; preds = %5
  %14 = getelementptr inbounds nuw i8, ptr %7, i64 24
  %15 = load i32, ptr %14, align 8
  %16 = icmp sgt i32 %15, 0
  br i1 %16, label %17, label %18

17:                                               ; preds = %13
  tail call void @_hash_kill_items(ptr noundef nonnull %0) #9
  br label %18

18:                                               ; preds = %13, %17, %5
  tail call void @_hash_dropscanbuf(ptr noundef %9, ptr noundef nonnull %7) #9
  store i32 0, ptr %10, align 4
  store i32 -1, ptr %11, align 4
  %19 = getelementptr inbounds nuw i8, ptr %7, i64 36
  store i32 -1, ptr %19, align 4
  %20 = getelementptr inbounds nuw i8, ptr %7, i64 40
  store i32 -1, ptr %20, align 4
  %21 = getelementptr inbounds nuw i8, ptr %7, i64 44
  store i32 0, ptr %21, align 4
  %22 = getelementptr inbounds nuw i8, ptr %7, i64 48
  store i32 0, ptr %22, align 4
  %23 = getelementptr inbounds nuw i8, ptr %7, i64 52
  store i32 0, ptr %23, align 4
  %.not = icmp eq ptr %1, null
  br i1 %.not, label %33, label %24

24:                                               ; preds = %18
  %25 = getelementptr inbounds nuw i8, ptr %0, i64 24
  %26 = load i32, ptr %25, align 8
  %27 = icmp sgt i32 %26, 0
  br i1 %27, label %28, label %33

28:                                               ; preds = %24
  %29 = getelementptr inbounds nuw i8, ptr %0, i64 32
  %30 = load ptr, ptr %29, align 8
  %31 = zext nneg i32 %26 to i64
  %32 = mul nuw nsw i64 %31, 72
  tail call void @llvm.memcpy.p0.p0.i64(ptr align 8 %30, ptr nonnull align 8 %1, i64 %32, i1 false)
  br label %33

33:                                               ; preds = %28, %24, %18
  %34 = getelementptr inbounds nuw i8, ptr %7, i64 12
  store i8 0, ptr %34, align 4
  %35 = getelementptr inbounds nuw i8, ptr %7, i64 13
  store i8 0, ptr %35, align 1
  ret void
}